target datalayout = "e-m:e-p270:32:32-p271:32:32-p272:64:64-i64:64-i128:128-f80:128-n8:16:32:64-S128"
target triple = "x86_64-pc-linux-gnu"

%struct.parallel_checkout = type { i32, ptr, i64, i64, ptr, ptr }
%struct.parallel_checkout_item = type { ptr, %struct.conv_attrs, i64, ptr, i32, %struct.stat }
%struct.conv_attrs = type { ptr, i32, i32, i32, ptr }
%struct.stat = type { i64, i64, i64, i32, i32, i32, i32, i64, i64, i64, i64, %struct.timespec, %struct.timespec, %struct.timespec, [3 x i64] }
%struct.timespec = type { i64, i64 }
%struct.cache_entry = type { %struct.hashmap_entry, %struct.stat_data, i32, i32, i32, i32, i32, %struct.object_id, [0 x i8] }
%struct.hashmap_entry = type { ptr, i32 }
%struct.stat_data = type { %struct.cache_time, %struct.cache_time, i32, i32, i32, i32, i32 }
%struct.cache_time = type { i32, i32 }
%struct.object_id = type { [32 x i8], i32 }

@parallel_checkout = internal global %struct.parallel_checkout zeroinitializer, align 8
@.str.4 = private unnamed_addr constant [20 x i8] c"parallel-checkout.c\00", align 1
@.str.14 = private unnamed_addr constant [43 x i8] c"unsupported conv_attrs classification '%d'\00", align 1
@.str.15 = private unnamed_addr constant [27 x i8] c"size_t overflow: %lu * %lu\00", align 1

; Function Attrs: inlinehint nounwind uwtable
define internal i64 @st_mult(i64 noundef %0, i64 noundef %1) #3 {
  %3 = alloca i64, align 8
  %4 = alloca i64, align 8
  store i64 %0, ptr %3, align 8, !tbaa !19
  store i64 %1, ptr %4, align 8, !tbaa !19
  %5 = load i64, ptr %3, align 8, !tbaa !19
  %6 = icmp ne i64 %5, 0
  br i1 %6, label %7, label %15

7:                                                ; preds = %2
  %8 = load i64, ptr %4, align 8, !tbaa !19
  %9 = load i64, ptr %3, align 8, !tbaa !19
  %10 = udiv i64 -1, %9
  %11 = icmp ugt i64 %8, %10
  br i1 %11, label %12, label %15

12:                                               ; preds = %7
  %13 = load i64, ptr %3, align 8, !tbaa !19
  %14 = load i64, ptr %4, align 8, !tbaa !19
  call void (ptr, ...) @die(ptr noundef @.str.15, i64 noundef %13, i64 noundef %14) #11
  unreachable

15:                                               ; preds = %7, %2
  %16 = load i64, ptr %3, align 8, !tbaa !19
  %17 = load i64, ptr %4, align 8, !tbaa !19
  %18 = mul i64 %16, %17
  ret i64 %18
}

; Function Attrs: nounwind uwtable
define internal i32 @is_eligible_for_parallel_checkout(ptr noundef %0, ptr noundef %1) #0 {
  %3 = alloca i32, align 4
  %4 = alloca ptr, align 8
  %5 = alloca ptr, align 8
  %6 = alloca i32, align 4
  %7 = alloca i64, align 8
  %8 = alloca i32, align 4
  store ptr %0, ptr %4, align 8, !tbaa !22
  store ptr %1, ptr %5, align 8, !tbaa !24
  call void @llvm.lifetime.start.p0(i64 4, ptr %6) #10
  call void @llvm.lifetime.start.p0(i64 8, ptr %7) #10
  %9 = load ptr, ptr %4, align 8, !tbaa !22
  %10 = getelementptr inbounds nuw %struct.cache_entry, ptr %9, i32 0, i32 2
  %11 = load i32, ptr %10, align 4, !tbaa !18
  %12 = and i32 %11, 61440
  %13 = icmp eq i32 %12, 32768
  br i1 %13, label %15, label %14

14:                                               ; preds = %2
  store i32 0, ptr %3, align 4
  store i32 1, ptr %8, align 4
  br label %47

15:                                               ; preds = %2
  %16 = load ptr, ptr %4, align 8, !tbaa !22
  %17 = getelementptr inbounds nuw %struct.cache_entry, ptr %16, i32 0, i32 5
  %18 = load i32, ptr %17, align 8, !tbaa !18
  %19 = zext i32 %18 to i64
  %20 = add i64 72, %19
  %21 = load ptr, ptr %5, align 8, !tbaa !24
  %22 = getelementptr inbounds nuw %struct.conv_attrs, ptr %21, i32 0, i32 4
  %23 = load ptr, ptr %22, align 8, !tbaa !39
  %24 = icmp ne ptr %23, null
  br i1 %24, label %25, label %30

25:                                               ; preds = %15
  %26 = load ptr, ptr %5, align 8, !tbaa !24
  %27 = getelementptr inbounds nuw %struct.conv_attrs, ptr %26, i32 0, i32 4
  %28 = load ptr, ptr %27, align 8, !tbaa !39
  %29 = call i64 @strlen(ptr noundef %28) #13
  br label %31

30:                                               ; preds = %15
  br label %31

31:                                               ; preds = %30, %25
  %32 = phi i64 [ %29, %25 ], [ 0, %30 ]
  %33 = add i64 %20, %32
  store i64 %33, ptr %7, align 8, !tbaa !19
  %34 = load i64, ptr %7, align 8, !tbaa !19
  %35 = icmp ugt i64 %34, 65516
  br i1 %35, label %36, label %37

36:                                               ; preds = %31
  store i32 0, ptr %3, align 4
  store i32 1, ptr %8, align 4
  br label %47

37:                                               ; preds = %31
  %38 = load ptr, ptr %5, align 8, !tbaa !24
  %39 = call i32 @classify_conv_attrs(ptr noundef %38)
  store i32 %39, ptr %6, align 4, !tbaa !18
  %40 = load i32, ptr %6, align 4, !tbaa !18
  switch i32 %40, label %45 [
    i32 0, label %41
    i32 1, label %42
    i32 2, label %43
    i32 3, label %44
  ]

41:                                               ; preds = %37
  store i32 1, ptr %3, align 4
  store i32 1, ptr %8, align 4
  br label %47

42:                                               ; preds = %37
  store i32 0, ptr %3, align 4
  store i32 1, ptr %8, align 4
  br label %47

43:                                               ; preds = %37
  store i32 0, ptr %3, align 4
  store i32 1, ptr %8, align 4
  br label %47

44:                                               ; preds = %37
  store i32 1, ptr %3, align 4
  store i32 1, ptr %8, align 4
  br label %47

45:                                               ; preds = %37
  %46 = load i32, ptr %6, align 4, !tbaa !18
  call void (ptr, i32, ptr, ...) @BUG_fl(ptr noundef @.str.4, i32 noundef 150, ptr noundef @.str.14, i32 noundef %46) #11
  unreachable

47:                                               ; preds = %44, %43, %42, %41, %36, %14
  call void @llvm.lifetime.end.p0(i64 8, ptr %7) #10
  call void @llvm.lifetime.end.p0(i64 4, ptr %6) #10
  %48 = load i32, ptr %3, align 4
  ret i32 %48
}

; Function Attrs: nounwind uwtable
define dso_local i32 @enqueue_checkout(ptr noundef %0, ptr noundef %1, ptr noundef %2) #0 {
  %4 = alloca i32, align 4
  %5 = alloca ptr, align 8
  %6 = alloca ptr, align 8
  %7 = alloca ptr, align 8
  %8 = alloca ptr, align 8
  %9 = alloca i32, align 4
  store ptr %0, ptr %5, align 8, !tbaa !22
  store ptr %1, ptr %6, align 8, !tbaa !24
  store ptr %2, ptr %7, align 8, !tbaa !14
  call void @llvm.lifetime.start.p0(i64 8, ptr %8) #10
  %10 = load i32, ptr @parallel_checkout, align 8, !tbaa !4
  %11 = icmp ne i32 %10, 1
  br i1 %11, label %17, label %12

12:                                               ; preds = %3
  %13 = load ptr, ptr %5, align 8, !tbaa !22
  %14 = load ptr, ptr %6, align 8, !tbaa !24
  %15 = call i32 @is_eligible_for_parallel_checkout(ptr noundef %13, ptr noundef %14)
  %16 = icmp ne i32 %15, 0
  br i1 %16, label %18, label %17

17:                                               ; preds = %12, %3
  store i32 -1, ptr %4, align 4
  store i32 1, ptr %9, align 4
  br label %67

18:                                               ; preds = %12
  br label %19

19:                                               ; preds = %18
  %20 = load i64, ptr getelementptr inbounds nuw (%struct.parallel_checkout, ptr @parallel_checkout, i32 0, i32 2), align 8, !tbaa !26
  %21 = add i64 %20, 1
  %22 = load i64, ptr getelementptr inbounds nuw (%struct.parallel_checkout, ptr @parallel_checkout, i32 0, i32 3), align 8, !tbaa !27
  %23 = icmp ugt i64 %21, %22
  br i1 %23, label %24, label %45

24:                                               ; preds = %19
  %25 = load i64, ptr getelementptr inbounds nuw (%struct.parallel_checkout, ptr @parallel_checkout, i32 0, i32 3), align 8, !tbaa !27
  %26 = add i64 %25, 16
  %27 = mul i64 %26, 3
  %28 = udiv i64 %27, 2
  %29 = load i64, ptr getelementptr inbounds nuw (%struct.parallel_checkout, ptr @parallel_checkout, i32 0, i32 2), align 8, !tbaa !26
  %30 = add i64 %29, 1
  %31 = icmp ult i64 %28, %30
  br i1 %31, label %32, label %35

32:                                               ; preds = %24
  %33 = load i64, ptr getelementptr inbounds nuw (%struct.parallel_checkout, ptr @parallel_checkout, i32 0, i32 2), align 8, !tbaa !26
  %34 = add i64 %33, 1
  store i64 %34, ptr getelementptr inbounds nuw (%struct.parallel_checkout, ptr @parallel_checkout, i32 0, i32 3), align 8, !tbaa !27
  br label %40

35:                                               ; preds = %24
  %36 = load i64, ptr getelementptr inbounds nuw (%struct.parallel_checkout, ptr @parallel_checkout, i32 0, i32 3), align 8, !tbaa !27
  %37 = add i64 %36, 16
  %38 = mul i64 %37, 3
  %39 = udiv i64 %38, 2
  store i64 %39, ptr getelementptr inbounds nuw (%struct.parallel_checkout, ptr @parallel_checkout, i32 0, i32 3), align 8, !tbaa !27
  br label %40

40:                                               ; preds = %35, %32
  %41 = load ptr, ptr getelementptr inbounds nuw (%struct.parallel_checkout, ptr @parallel_checkout, i32 0, i32 1), align 8, !tbaa !28
  %42 = load i64, ptr getelementptr inbounds nuw (%struct.parallel_checkout, ptr @parallel_checkout, i32 0, i32 3), align 8, !tbaa !27
  %43 = call i64 @st_mult(i64 noundef 208, i64 noundef %42)
  %44 = call ptr @xrealloc(ptr noundef %41, i64 noundef %43)
  store ptr %44, ptr getelementptr inbounds nuw (%struct.parallel_checkout, ptr @parallel_checkout, i32 0, i32 1), align 8, !tbaa !28
  br label %45

45:                                               ; preds = %40, %19
  br label %46

46:                                               ; preds = %45
  br label %47

47:                                               ; preds = %46
  %48 = load ptr, ptr getelementptr inbounds nuw (%struct.parallel_checkout, ptr @parallel_checkout, i32 0, i32 1), align 8, !tbaa !28
  %49 = load i64, ptr getelementptr inbounds nuw (%struct.parallel_checkout, ptr @parallel_checkout, i32 0, i32 2), align 8, !tbaa !26
  %50 = getelementptr inbounds nuw %struct.parallel_checkout_item, ptr %48, i64 %49
  store ptr %50, ptr %8, align 8, !tbaa !29
  %51 = load ptr, ptr %5, align 8, !tbaa !22
  %52 = load ptr, ptr %8, align 8, !tbaa !29
  %53 = getelementptr inbounds nuw %struct.parallel_checkout_item, ptr %52, i32 0, i32 0
  store ptr %51, ptr %53, align 8, !tbaa !30
  %54 = load ptr, ptr %8, align 8, !tbaa !29
  %55 = getelementptr inbounds nuw %struct.parallel_checkout_item, ptr %54, i32 0, i32 1
  %56 = load ptr, ptr %6, align 8, !tbaa !24
  call void @llvm.memcpy.p0.p0.i64(ptr align 8 %55, ptr align 8 %56, i64 32, i1 false)
  %57 = load ptr, ptr %8, align 8, !tbaa !29
  %58 = getelementptr inbounds nuw %struct.parallel_checkout_item, ptr %57, i32 0, i32 4
  store i32 0, ptr %58, align 8, !tbaa !36
  %59 = load i64, ptr getelementptr inbounds nuw (%struct.parallel_checkout, ptr @parallel_checkout, i32 0, i32 2), align 8, !tbaa !26
  %60 = load ptr, ptr %8, align 8, !tbaa !29
  %61 = getelementptr inbounds nuw %struct.parallel_checkout_item, ptr %60, i32 0, i32 2
  store i64 %59, ptr %61, align 8, !tbaa !37
  %62 = load ptr, ptr %7, align 8, !tbaa !14
  %63 = load ptr, ptr %8, align 8, !tbaa !29
  %64 = getelementptr inbounds nuw %struct.parallel_checkout_item, ptr %63, i32 0, i32 3
  store ptr %62, ptr %64, align 8, !tbaa !38
  %65 = load i64, ptr getelementptr inbounds nuw (%struct.parallel_checkout, ptr @parallel_checkout, i32 0, i32 2), align 8, !tbaa !26
  %66 = add i64 %65, 1
  store i64 %66, ptr getelementptr inbounds nuw (%struct.parallel_checkout, ptr @parallel_checkout, i32 0, i32 2), align 8, !tbaa !26
  store i32 0, ptr %4, align 4
  store i32 1, ptr %9, align 4
  br label %67

67:                                               ; preds = %47, %17
  call void @llvm.lifetime.end.p0(i64 8, ptr %8) #10
  %68 = load i32, ptr %4, align 4
  ret i32 %68
}