; Function Attrs: nounwind uwtable
define dso_local range(i32 -1, 1) i32 @enqueue_checkout(ptr noundef %0, ptr noundef %1, ptr noundef %2) local_unnamed_addr #1 {
  %4 = load i32, ptr @parallel_checkout, align 8, !tbaa !4
  %.not = icmp eq i32 %4, 1
  br i1 %.not, label %5, label %is_eligible_for_parallel_checkout.exit.thread

5:                                                ; preds = %3
  %6 = getelementptr inbounds nuw i8, ptr %0, i64 52
  %7 = load i32, ptr %6, align 4, !tbaa !15
  %8 = and i32 %7, 61440
  %9 = icmp eq i32 %8, 32768
  br i1 %9, label %10, label %is_eligible_for_parallel_checkout.exit.thread

10:                                               ; preds = %5
  %11 = getelementptr inbounds nuw i8, ptr %0, i64 64
  %12 = load i32, ptr %11, align 8, !tbaa !15
  %13 = zext i32 %12 to i64
  %14 = add nuw nsw i64 %13, 72
  %15 = getelementptr inbounds nuw i8, ptr %1, i64 24
  %16 = load ptr, ptr %15, align 8, !tbaa !20
  %.not.i = icmp eq ptr %16, null
  br i1 %.not.i, label %19, label %17

17:                                               ; preds = %10
  %18 = tail call i64 @strlen(ptr noundef nonnull dereferenceable(1) %16) #20
  br label %19

19:                                               ; preds = %17, %10
  %20 = phi i64 [ %18, %17 ], [ 0, %10 ]
  %21 = add i64 %14, %20
  %22 = icmp ugt i64 %21, 65516
  br i1 %22, label %is_eligible_for_parallel_checkout.exit.thread, label %23

23:                                               ; preds = %19
  %24 = tail call i32 @classify_conv_attrs(ptr noundef nonnull %1) #17
  switch i32 %24, label %25 [
    i32 0, label %is_eligible_for_parallel_checkout.exit
    i32 1, label %is_eligible_for_parallel_checkout.exit.thread
    i32 2, label %is_eligible_for_parallel_checkout.exit.thread
    i32 3, label %is_eligible_for_parallel_checkout.exit
  ]

25:                                               ; preds = %23
  tail call void (ptr, i32, ptr, ...) @BUG_fl(ptr noundef nonnull @.str.4, i32 noundef 150, ptr noundef nonnull @.str.14, i32 noundef %24) #19
  unreachable

is_eligible_for_parallel_checkout.exit:           ; preds = %23, %23
  %26 = load i64, ptr getelementptr inbounds nuw (i8, ptr @parallel_checkout, i64 16), align 8, !tbaa !23
  %27 = add i64 %26, 1
  %28 = load i64, ptr getelementptr inbounds nuw (i8, ptr @parallel_checkout, i64 24), align 8, !tbaa !24
  %29 = icmp ugt i64 %27, %28
  br i1 %29, label %30, label %is_eligible_for_parallel_checkout.exit._crit_edge

is_eligible_for_parallel_checkout.exit._crit_edge: ; preds = %is_eligible_for_parallel_checkout.exit
  %.pre = load ptr, ptr getelementptr inbounds nuw (i8, ptr @parallel_checkout, i64 8), align 8, !tbaa !25
  br label %38

30:                                               ; preds = %is_eligible_for_parallel_checkout.exit
  %31 = mul i64 %28, 3
  %32 = add i64 %31, 48
  %33 = lshr i64 %32, 1
  %. = tail call i64 @llvm.umax.i64(i64 %33, i64 %27)
  store i64 %., ptr getelementptr inbounds nuw (i8, ptr @parallel_checkout, i64 24), align 8, !tbaa !24
  %mul.ov.i = icmp ugt i64 %., 88686269585142075
  br i1 %mul.ov.i, label %34, label %st_mult.exit

34:                                               ; preds = %30
  tail call void (ptr, ...) @die(ptr noundef nonnull @.str.15, i64 noundef 208, i64 noundef %.) #19
  unreachable

st_mult.exit:                                     ; preds = %30
  %35 = load ptr, ptr getelementptr inbounds nuw (i8, ptr @parallel_checkout, i64 8), align 8, !tbaa !25
  %36 = mul nuw i64 %., 208
  %37 = tail call ptr @xrealloc(ptr noundef %35, i64 noundef %36) #17
  store ptr %37, ptr getelementptr inbounds nuw (i8, ptr @parallel_checkout, i64 8), align 8, !tbaa !25
  %.pre16 = load i64, ptr getelementptr inbounds nuw (i8, ptr @parallel_checkout, i64 16), align 8, !tbaa !23
  %.pre17 = add i64 %.pre16, 1
  br label %38

38:                                               ; preds = %is_eligible_for_parallel_checkout.exit._crit_edge, %st_mult.exit
  %.pre-phi = phi i64 [ %27, %is_eligible_for_parallel_checkout.exit._crit_edge ], [ %.pre17, %st_mult.exit ]
  %39 = phi i64 [ %26, %is_eligible_for_parallel_checkout.exit._crit_edge ], [ %.pre16, %st_mult.exit ]
  %40 = phi ptr [ %.pre, %is_eligible_for_parallel_checkout.exit._crit_edge ], [ %37, %st_mult.exit ]
  %41 = getelementptr inbounds nuw %struct.parallel_checkout_item, ptr %40, i64 %39
  store ptr %0, ptr %41, align 8, !tbaa !26
  %42 = getelementptr inbounds nuw i8, ptr %41, i64 8
  tail call void @llvm.memcpy.p0.p0.i64(ptr noundef nonnull align 8 dereferenceable(32) %42, ptr noundef nonnull align 8 dereferenceable(32) %1, i64 32, i1 false)
  %43 = getelementptr inbounds nuw i8, ptr %41, i64 56
  store i32 0, ptr %43, align 8, !tbaa !31
  %44 = getelementptr inbounds nuw i8, ptr %41, i64 40
  store i64 %39, ptr %44, align 8, !tbaa !32
  %45 = getelementptr inbounds nuw i8, ptr %41, i64 48
  store ptr %2, ptr %45, align 8, !tbaa !33
  store i64 %.pre-phi, ptr getelementptr inbounds nuw (i8, ptr @parallel_checkout, i64 16), align 8, !tbaa !23
  br label %is_eligible_for_parallel_checkout.exit.thread

is_eligible_for_parallel_checkout.exit.thread:    ; preds = %23, %23, %19, %5, %3, %38
  %.0 = phi i32 [ 0, %38 ], [ -1, %3 ], [ -1, %5 ], [ -1, %19 ], [ -1, %23 ], [ -1, %23 ]
  ret i32 %.0
}